target datalayout = "e-m:e-p270:32:32-p271:32:32-p272:64:64-i64:64-i128:128-f80:128-n8:16:32:64-S128"
target triple = "x86_64-pc-linux-gnu"

%struct.KDF_HKDF = type { ptr, i32, %struct.PROV_DIGEST, ptr, i64, ptr, i64, ptr, i64, ptr, i64, ptr, i64, ptr, i64 }
%struct.PROV_DIGEST = type { ptr, ptr, ptr }

@.str = private unnamed_addr constant [49 x i8] c"../openssl/providers/implementations/kdfs/hkdf.c\00", align 1

; Function Attrs: nounwind uwtable
define internal ptr @kdf_hkdf_new(ptr noundef %0) #0 {
  %2 = alloca ptr, align 8
  %3 = alloca ptr, align 8
  %4 = alloca ptr, align 8
  %5 = alloca i32, align 4
  store ptr %0, ptr %3, align 8, !tbaa !3
  call void @llvm.lifetime.start.p0(i64 8, ptr %4) #6
  %6 = call i32 @ossl_prov_is_running()
  %7 = icmp ne i32 %6, 0
  br i1 %7, label %9, label %8

8:                                                ; preds = %1
  store ptr null, ptr %2, align 8
  store i32 1, ptr %5, align 4
  br label %18

9:                                                ; preds = %1
  %10 = call noalias ptr @CRYPTO_zalloc(i64 noundef 136, ptr noundef @.str, i32 noundef 108)
  store ptr %10, ptr %4, align 8, !tbaa !3
  %11 = icmp ne ptr %10, null
  br i1 %11, label %12, label %16

12:                                               ; preds = %9
  %13 = load ptr, ptr %3, align 8, !tbaa !3
  %14 = load ptr, ptr %4, align 8, !tbaa !3
  %15 = getelementptr inbounds nuw %struct.KDF_HKDF, ptr %14, i32 0, i32 0
  store ptr %13, ptr %15, align 8, !tbaa !7
  br label %16

16:                                               ; preds = %12, %9
  %17 = load ptr, ptr %4, align 8, !tbaa !3
  store ptr %17, ptr %2, align 8
  store i32 1, ptr %5, align 4
  br label %18

18:                                               ; preds = %16, %8
  call void @llvm.lifetime.end.p0(i64 8, ptr %4) #6
  %19 = load ptr, ptr %2, align 8
  ret ptr %19
}

; Function Attrs: nounwind uwtable
define internal ptr @kdf_hkdf_dup(ptr noundef %0) #0 {
  %2 = alloca ptr, align 8
  %3 = alloca ptr, align 8
  %4 = alloca ptr, align 8
  %5 = alloca ptr, align 8
  %6 = alloca i32, align 4
  store ptr %0, ptr %3, align 8, !tbaa !3
  call void @llvm.lifetime.start.p0(i64 8, ptr %4) #6
  %7 = load ptr, ptr %3, align 8, !tbaa !3
  store ptr %7, ptr %4, align 8, !tbaa !3
  call void @llvm.lifetime.start.p0(i64 8, ptr %5) #6
  %8 = load ptr, ptr %4, align 8, !tbaa !3
  %9 = getelementptr inbounds nuw %struct.KDF_HKDF, ptr %8, i32 0, i32 0
  %10 = load ptr, ptr %9, align 8, !tbaa !7
  %11 = call ptr @kdf_hkdf_new(ptr noundef %10)
  store ptr %11, ptr %5, align 8, !tbaa !3
  %12 = load ptr, ptr %5, align 8, !tbaa !3
  %13 = icmp ne ptr %12, null
  br i1 %13, label %14, label %106

14:                                               ; preds = %1
  %15 = load ptr, ptr %4, align 8, !tbaa !3
  %16 = getelementptr inbounds nuw %struct.KDF_HKDF, ptr %15, i32 0, i32 3
  %17 = load ptr, ptr %16, align 8, !tbaa !15
  %18 = load ptr, ptr %4, align 8, !tbaa !3
  %19 = getelementptr inbounds nuw %struct.KDF_HKDF, ptr %18, i32 0, i32 4
  %20 = load i64, ptr %19, align 8, !tbaa !16
  %21 = load ptr, ptr %5, align 8, !tbaa !3
  %22 = getelementptr inbounds nuw %struct.KDF_HKDF, ptr %21, i32 0, i32 3
  %23 = load ptr, ptr %5, align 8, !tbaa !3
  %24 = getelementptr inbounds nuw %struct.KDF_HKDF, ptr %23, i32 0, i32 4
  %25 = call i32 @ossl_prov_memdup(ptr noundef %17, i64 noundef %20, ptr noundef %22, ptr noundef %24)
  %26 = icmp ne i32 %25, 0
  br i1 %26, label %27, label %99

27:                                               ; preds = %14
  %28 = load ptr, ptr %4, align 8, !tbaa !3
  %29 = getelementptr inbounds nuw %struct.KDF_HKDF, ptr %28, i32 0, i32 5
  %30 = load ptr, ptr %29, align 8, !tbaa !17
  %31 = load ptr, ptr %4, align 8, !tbaa !3
  %32 = getelementptr inbounds nuw %struct.KDF_HKDF, ptr %31, i32 0, i32 6
  %33 = load i64, ptr %32, align 8, !tbaa !18
  %34 = load ptr, ptr %5, align 8, !tbaa !3
  %35 = getelementptr inbounds nuw %struct.KDF_HKDF, ptr %34, i32 0, i32 5
  %36 = load ptr, ptr %5, align 8, !tbaa !3
  %37 = getelementptr inbounds nuw %struct.KDF_HKDF, ptr %36, i32 0, i32 6
  %38 = call i32 @ossl_prov_memdup(ptr noundef %30, i64 noundef %33, ptr noundef %35, ptr noundef %37)
  %39 = icmp ne i32 %38, 0
  br i1 %39, label %40, label %99

40:                                               ; preds = %27
  %41 = load ptr, ptr %4, align 8, !tbaa !3
  %42 = getelementptr inbounds nuw %struct.KDF_HKDF, ptr %41, i32 0, i32 7
  %43 = load ptr, ptr %42, align 8, !tbaa !19
  %44 = load ptr, ptr %4, align 8, !tbaa !3
  %45 = getelementptr inbounds nuw %struct.KDF_HKDF, ptr %44, i32 0, i32 8
  %46 = load i64, ptr %45, align 8, !tbaa !20
  %47 = load ptr, ptr %5, align 8, !tbaa !3
  %48 = getelementptr inbounds nuw %struct.KDF_HKDF, ptr %47, i32 0, i32 7
  %49 = load ptr, ptr %5, align 8, !tbaa !3
  %50 = getelementptr inbounds nuw %struct.KDF_HKDF, ptr %49, i32 0, i32 8
  %51 = call i32 @ossl_prov_memdup(ptr noundef %43, i64 noundef %46, ptr noundef %48, ptr noundef %50)
  %52 = icmp ne i32 %51, 0
  br i1 %52, label %53, label %99

53:                                               ; preds = %40
  %54 = load ptr, ptr %4, align 8, !tbaa !3
  %55 = getelementptr inbounds nuw %struct.KDF_HKDF, ptr %54, i32 0, i32 9
  %56 = load ptr, ptr %55, align 8, !tbaa !21
  %57 = load ptr, ptr %4, align 8, !tbaa !3
  %58 = getelementptr inbounds nuw %struct.KDF_HKDF, ptr %57, i32 0, i32 10
  %59 = load i64, ptr %58, align 8, !tbaa !22
  %60 = load ptr, ptr %5, align 8, !tbaa !3
  %61 = getelementptr inbounds nuw %struct.KDF_HKDF, ptr %60, i32 0, i32 9
  %62 = load ptr, ptr %5, align 8, !tbaa !3
  %63 = getelementptr inbounds nuw %struct.KDF_HKDF, ptr %62, i32 0, i32 10
  %64 = call i32 @ossl_prov_memdup(ptr noundef %56, i64 noundef %59, ptr noundef %61, ptr noundef %63)
  %65 = icmp ne i32 %64, 0
  br i1 %65, label %66, label %99

66:                                               ; preds = %53
  %67 = load ptr, ptr %4, align 8, !tbaa !3
  %68 = getelementptr inbounds nuw %struct.KDF_HKDF, ptr %67, i32 0, i32 11
  %69 = load ptr, ptr %68, align 8, !tbaa !23
  %70 = load ptr, ptr %4, align 8, !tbaa !3
  %71 = getelementptr inbounds nuw %struct.KDF_HKDF, ptr %70, i32 0, i32 12
  %72 = load i64, ptr %71, align 8, !tbaa !24
  %73 = load ptr, ptr %5, align 8, !tbaa !3
  %74 = getelementptr inbounds nuw %struct.KDF_HKDF, ptr %73, i32 0, i32 11
  %75 = load ptr, ptr %5, align 8, !tbaa !3
  %76 = getelementptr inbounds nuw %struct.KDF_HKDF, ptr %75, i32 0, i32 12
  %77 = call i32 @ossl_prov_memdup(ptr noundef %69, i64 noundef %72, ptr noundef %74, ptr noundef %76)
  %78 = icmp ne i32 %77, 0
  br i1 %78, label %79, label %99

79:                                               ; preds = %66
  %80 = load ptr, ptr %4, align 8, !tbaa !3
  %81 = getelementptr inbounds nuw %struct.KDF_HKDF, ptr %80, i32 0, i32 13
  %82 = load ptr, ptr %81, align 8, !tbaa !25
  %83 = load ptr, ptr %4, align 8, !tbaa !3
  %84 = getelementptr inbounds nuw %struct.KDF_HKDF, ptr %83, i32 0, i32 14
  %85 = load i64, ptr %84, align 8, !tbaa !26
  %86 = load ptr, ptr %5, align 8, !tbaa !3
  %87 = getelementptr inbounds nuw %struct.KDF_HKDF, ptr %86, i32 0, i32 13
  %88 = load ptr, ptr %5, align 8, !tbaa !3
  %89 = getelementptr inbounds nuw %struct.KDF_HKDF, ptr %88, i32 0, i32 14
  %90 = call i32 @ossl_prov_memdup(ptr noundef %82, i64 noundef %85, ptr noundef %87, ptr noundef %89)
  %91 = icmp ne i32 %90, 0
  br i1 %91, label %92, label %99

92:                                               ; preds = %79
  %93 = load ptr, ptr %5, align 8, !tbaa !3
  %94 = getelementptr inbounds nuw %struct.KDF_HKDF, ptr %93, i32 0, i32 2
  %95 = load ptr, ptr %4, align 8, !tbaa !3
  %96 = getelementptr inbounds nuw %struct.KDF_HKDF, ptr %95, i32 0, i32 2
  %97 = call i32 @ossl_prov_digest_copy(ptr noundef %94, ptr noundef %96)
  %98 = icmp ne i32 %97, 0
  br i1 %98, label %100, label %99

99:                                               ; preds = %92, %79, %66, %53, %40, %27, %14
  br label %108

100:                                              ; preds = %92
  %101 = load ptr, ptr %4, align 8, !tbaa !3
  %102 = getelementptr inbounds nuw %struct.KDF_HKDF, ptr %101, i32 0, i32 1
  %103 = load i32, ptr %102, align 8, !tbaa !27
  %104 = load ptr, ptr %5, align 8, !tbaa !3
  %105 = getelementptr inbounds nuw %struct.KDF_HKDF, ptr %104, i32 0, i32 1
  store i32 %103, ptr %105, align 8, !tbaa !27
  br label %106

106:                                              ; preds = %100, %1
  %107 = load ptr, ptr %5, align 8, !tbaa !3
  store ptr %107, ptr %2, align 8
  store i32 1, ptr %6, align 4
  br label %110

108:                                              ; preds = %99
  %109 = load ptr, ptr %5, align 8, !tbaa !3
  call void @kdf_hkdf_free(ptr noundef %109)
  store ptr null, ptr %2, align 8
  store i32 1, ptr %6, align 4
  br label %110

110:                                              ; preds = %108, %106
  call void @llvm.lifetime.end.p0(i64 8, ptr %5) #6
  call void @llvm.lifetime.end.p0(i64 8, ptr %4) #6
  %111 = load ptr, ptr %2, align 8
  ret ptr %111
}