; Function Attrs: nounwind uwtable
define internal ptr @kdf_hkdf_dup(ptr noundef %0) #0 {
  %2 = load ptr, ptr %0, align 8, !tbaa !3
  %3 = tail call i32 @ossl_prov_is_running() #7
  %.not.i = icmp eq i32 %3, 0
  br i1 %.not.i, label %kdf_hkdf_new.exit.thread, label %4

4:                                                ; preds = %1
  %5 = tail call noalias ptr @CRYPTO_zalloc(i64 noundef 136, ptr noundef nonnull @.str, i32 noundef 108) #7
  %.not5.i = icmp eq ptr %5, null
  br i1 %.not5.i, label %kdf_hkdf_new.exit.thread, label %6

6:                                                ; preds = %4
  store ptr %2, ptr %5, align 8, !tbaa !3
  %7 = getelementptr inbounds nuw i8, ptr %0, i64 40
  %8 = load ptr, ptr %7, align 8, !tbaa !14
  %9 = getelementptr inbounds nuw i8, ptr %0, i64 48
  %10 = load i64, ptr %9, align 8, !tbaa !15
  %11 = getelementptr inbounds nuw i8, ptr %5, i64 40
  %12 = getelementptr inbounds nuw i8, ptr %5, i64 48
  %13 = tail call i32 @ossl_prov_memdup(ptr noundef %8, i64 noundef %10, ptr noundef nonnull %11, ptr noundef nonnull %12) #7
  %.not35 = icmp eq i32 %13, 0
  br i1 %.not35, label %62, label %14

14:                                               ; preds = %6
  %15 = getelementptr inbounds nuw i8, ptr %0, i64 56
  %16 = load ptr, ptr %15, align 8, !tbaa !16
  %17 = getelementptr inbounds nuw i8, ptr %0, i64 64
  %18 = load i64, ptr %17, align 8, !tbaa !17
  %19 = getelementptr inbounds nuw i8, ptr %5, i64 56
  %20 = getelementptr inbounds nuw i8, ptr %5, i64 64
  %21 = tail call i32 @ossl_prov_memdup(ptr noundef %16, i64 noundef %18, ptr noundef nonnull %19, ptr noundef nonnull %20) #7
  %.not36 = icmp eq i32 %21, 0
  br i1 %.not36, label %62, label %22

22:                                               ; preds = %14
  %23 = getelementptr inbounds nuw i8, ptr %0, i64 72
  %24 = load ptr, ptr %23, align 8, !tbaa !18
  %25 = getelementptr inbounds nuw i8, ptr %0, i64 80
  %26 = load i64, ptr %25, align 8, !tbaa !19
  %27 = getelementptr inbounds nuw i8, ptr %5, i64 72
  %28 = getelementptr inbounds nuw i8, ptr %5, i64 80
  %29 = tail call i32 @ossl_prov_memdup(ptr noundef %24, i64 noundef %26, ptr noundef nonnull %27, ptr noundef nonnull %28) #7
  %.not37 = icmp eq i32 %29, 0
  br i1 %.not37, label %62, label %30

30:                                               ; preds = %22
  %31 = getelementptr inbounds nuw i8, ptr %0, i64 88
  %32 = load ptr, ptr %31, align 8, !tbaa !20
  %33 = getelementptr inbounds nuw i8, ptr %0, i64 96
  %34 = load i64, ptr %33, align 8, !tbaa !21
  %35 = getelementptr inbounds nuw i8, ptr %5, i64 88
  %36 = getelementptr inbounds nuw i8, ptr %5, i64 96
  %37 = tail call i32 @ossl_prov_memdup(ptr noundef %32, i64 noundef %34, ptr noundef nonnull %35, ptr noundef nonnull %36) #7
  %.not38 = icmp eq i32 %37, 0
  br i1 %.not38, label %62, label %38

38:                                               ; preds = %30
  %39 = getelementptr inbounds nuw i8, ptr %0, i64 104
  %40 = load ptr, ptr %39, align 8, !tbaa !22
  %41 = getelementptr inbounds nuw i8, ptr %0, i64 112
  %42 = load i64, ptr %41, align 8, !tbaa !23
  %43 = getelementptr inbounds nuw i8, ptr %5, i64 104
  %44 = getelementptr inbounds nuw i8, ptr %5, i64 112
  %45 = tail call i32 @ossl_prov_memdup(ptr noundef %40, i64 noundef %42, ptr noundef nonnull %43, ptr noundef nonnull %44) #7
  %.not39 = icmp eq i32 %45, 0
  br i1 %.not39, label %62, label %46

46:                                               ; preds = %38
  %47 = getelementptr inbounds nuw i8, ptr %0, i64 120
  %48 = load ptr, ptr %47, align 8, !tbaa !24
  %49 = getelementptr inbounds nuw i8, ptr %0, i64 128
  %50 = load i64, ptr %49, align 8, !tbaa !25
  %51 = getelementptr inbounds nuw i8, ptr %5, i64 120
  %52 = getelementptr inbounds nuw i8, ptr %5, i64 128
  %53 = tail call i32 @ossl_prov_memdup(ptr noundef %48, i64 noundef %50, ptr noundef nonnull %51, ptr noundef nonnull %52) #7
  %.not40 = icmp eq i32 %53, 0
  br i1 %.not40, label %62, label %54

54:                                               ; preds = %46
  %55 = getelementptr inbounds nuw i8, ptr %5, i64 16
  %56 = getelementptr inbounds nuw i8, ptr %0, i64 16
  %57 = tail call i32 @ossl_prov_digest_copy(ptr noundef nonnull %55, ptr noundef nonnull %56) #7
  %.not41 = icmp eq i32 %57, 0
  br i1 %.not41, label %62, label %58

58:                                               ; preds = %54
  %59 = getelementptr inbounds nuw i8, ptr %0, i64 8
  %60 = load i32, ptr %59, align 8, !tbaa !26
  %61 = getelementptr inbounds nuw i8, ptr %5, i64 8
  store i32 %60, ptr %61, align 8, !tbaa !26
  br label %kdf_hkdf_new.exit.thread

62:                                               ; preds = %6, %14, %22, %30, %38, %46, %54
  tail call void @kdf_hkdf_free(ptr noundef nonnull %5)
  br label %kdf_hkdf_new.exit.thread

kdf_hkdf_new.exit.thread:                         ; preds = %4, %1, %58, %62
  %.0 = phi ptr [ null, %62 ], [ %5, %58 ], [ null, %1 ], [ null, %4 ]
  ret ptr %.0
}